; Function Attrs: mustprogress uwtable
define internal void @_ZN12_GLOBAL__N_115SmtPrintVisitor6concatEN5Yosys10Functional4NodeES3_S3_(ptr dead_on_unwind noalias writable sret(%"class.Yosys::SExpr") align 8 %0, ptr noundef nonnull align 8 dereferenceable(56) %1, ptr readnone captures(none) %2, i32 %3, ptr %4, i32 %5, ptr noundef readonly byval(%"class.Yosys::Functional::Node") align 8 captures(none) %6) unnamed_addr #5 align 2 personality ptr @__gxx_personality_v0 {
  %8 = alloca %"class.Yosys::Functional::Node", align 8
  %9 = alloca %"class.Yosys::Functional::Node", align 8
  %10 = alloca %"class.Yosys::SExpr", align 8
  %11 = alloca %"class.Yosys::SExpr", align 8
  call void @llvm.lifetime.start.p0(i64 40, ptr nonnull %10) #26
  %12 = getelementptr inbounds nuw i8, ptr %1, i64 8
  %.sroa.01.0.copyload = load ptr, ptr %6, align 8, !tbaa !512
  %.sroa.22.0..sroa_idx = getelementptr inbounds nuw i8, ptr %6, i64 8
  %.sroa.22.0.copyload = load i32, ptr %.sroa.22.0..sroa_idx, align 8, !tbaa !69
  call void @llvm.lifetime.start.p0(i64 16, ptr nonnull %9)
  store ptr %.sroa.01.0.copyload, ptr %9, align 8, !noalias !513
  %13 = getelementptr inbounds nuw i8, ptr %9, i64 8
  store i32 %.sroa.22.0.copyload, ptr %13, align 8, !noalias !513
  %14 = getelementptr inbounds nuw i8, ptr %1, i64 24
  %15 = load ptr, ptr %14, align 8, !tbaa !196, !noalias !513
  %.not.i.i = icmp eq ptr %15, null
  br i1 %.not.i.i, label %16, label %_ZNKSt8functionIFN5Yosys5SExprENS0_10Functional4NodeEEEclES3_.exit

16:                                               ; preds = %7
  tail call void @_ZSt25__throw_bad_function_callv() #28, !noalias !513
  unreachable

_ZNKSt8functionIFN5Yosys5SExprENS0_10Functional4NodeEEEclES3_.exit: ; preds = %7
  %17 = getelementptr inbounds nuw i8, ptr %1, i64 32
  %18 = load ptr, ptr %17, align 8, !tbaa !198, !noalias !513
  call void %18(ptr dead_on_unwind nonnull writable sret(%"class.Yosys::SExpr") align 8 %10, ptr noundef nonnull align 8 dereferenceable(32) %12, ptr noundef nonnull align 8 dereferenceable(16) %9)
  call void @llvm.lifetime.end.p0(i64 16, ptr nonnull %9)
  call void @llvm.lifetime.start.p0(i64 40, ptr nonnull %11) #26
  call void @llvm.lifetime.start.p0(i64 16, ptr nonnull %8)
  store ptr %4, ptr %8, align 8, !noalias !516
  %19 = getelementptr inbounds nuw i8, ptr %8, i64 8
  store i32 %5, ptr %19, align 8, !noalias !516
  %20 = load ptr, ptr %14, align 8, !tbaa !196, !noalias !516
  %.not.i.i10 = icmp eq ptr %20, null
  br i1 %.not.i.i10, label %21, label %22

21:                                               ; preds = %_ZNKSt8functionIFN5Yosys5SExprENS0_10Functional4NodeEEEclES3_.exit
  invoke void @_ZSt25__throw_bad_function_callv() #28
          to label %.noexc unwind label %48

.noexc:                                           ; preds = %21
  unreachable

22:                                               ; preds = %_ZNKSt8functionIFN5Yosys5SExprENS0_10Functional4NodeEEEclES3_.exit
  %23 = load ptr, ptr %17, align 8, !tbaa !198, !noalias !516
  invoke void %23(ptr dead_on_unwind nonnull writable sret(%"class.Yosys::SExpr") align 8 %11, ptr noundef nonnull align 8 dereferenceable(32) %12, ptr noundef nonnull align 8 dereferenceable(16) %8)
          to label %24 unwind label %48

24:                                               ; preds = %22
  call void @llvm.lifetime.end.p0(i64 16, ptr nonnull %8)
  invoke void @_ZN5Yosys9SExprUtil4listIJRA7_KcNS_5SExprES5_EEES5_DpOT_(ptr dead_on_unwind writable sret(%"class.Yosys::SExpr") align 8 %0, ptr noundef nonnull align 1 dereferenceable(7) @.str.91, ptr noundef nonnull align 8 dereferenceable(40) %10, ptr noundef nonnull align 8 dereferenceable(40) %11)
          to label %25 unwind label %50

25:                                               ; preds = %24
  %26 = getelementptr inbounds nuw i8, ptr %11, i64 32
  %27 = load i8, ptr %26, align 8, !tbaa !155
  %switch.i.i.i = icmp eq i8 %27, 0
  br i1 %switch.i.i.i, label %.noexc1.i.i, label %28

.noexc1.i.i:                                      ; preds = %25
  call void @_ZNSt6vectorIN5Yosys5SExprESaIS1_EED2Ev(ptr noundef nonnull align 8 dereferenceable(40) %11) #26
  br label %_ZN5Yosys5SExprD2Ev.exit

28:                                               ; preds = %25
  %29 = load ptr, ptr %11, align 8, !tbaa !15
  %30 = getelementptr inbounds nuw i8, ptr %11, i64 16
  %31 = icmp eq ptr %29, %30
  br i1 %31, label %_ZNKSt7__cxx1112basic_stringIcSt11char_traitsIcESaIcEE11_M_is_localEv.exit.thread.i.i.i.i.i.i.i.i.i.i, label %_ZNKSt7__cxx1112basic_stringIcSt11char_traitsIcESaIcEE11_M_is_localEv.exit.i.i.i.i.i.i.i.i.i.i

_ZNKSt7__cxx1112basic_stringIcSt11char_traitsIcESaIcEE11_M_is_localEv.exit.thread.i.i.i.i.i.i.i.i.i.i: ; preds = %28
  %32 = getelementptr inbounds nuw i8, ptr %11, i64 8
  %33 = load i64, ptr %32, align 8, !tbaa !20
  %34 = icmp ult i64 %33, 16
  call void @llvm.assume(i1 %34)
  br label %_ZN5Yosys5SExprD2Ev.exit

_ZNKSt7__cxx1112basic_stringIcSt11char_traitsIcESaIcEE11_M_is_localEv.exit.i.i.i.i.i.i.i.i.i.i: ; preds = %28
  %35 = load i64, ptr %30, align 8, !tbaa !21
  %36 = add i64 %35, 1
  call void @_ZdlPvm(ptr noundef %29, i64 noundef %36) #27
  br label %_ZN5Yosys5SExprD2Ev.exit

_ZN5Yosys5SExprD2Ev.exit:                         ; preds = %.noexc1.i.i, %_ZNKSt7__cxx1112basic_stringIcSt11char_traitsIcESaIcEE11_M_is_localEv.exit.thread.i.i.i.i.i.i.i.i.i.i, %_ZNKSt7__cxx1112basic_stringIcSt11char_traitsIcESaIcEE11_M_is_localEv.exit.i.i.i.i.i.i.i.i.i.i
  call void @llvm.lifetime.end.p0(i64 40, ptr nonnull %11) #26
  %37 = getelementptr inbounds nuw i8, ptr %10, i64 32
  %38 = load i8, ptr %37, align 8, !tbaa !155
  %switch.i.i.i13 = icmp eq i8 %38, 0
  br i1 %switch.i.i.i13, label %.noexc1.i.i16, label %39

.noexc1.i.i16:                                    ; preds = %_ZN5Yosys5SExprD2Ev.exit
  call void @_ZNSt6vectorIN5Yosys5SExprESaIS1_EED2Ev(ptr noundef nonnull align 8 dereferenceable(40) %10) #26
  br label %_ZN5Yosys5SExprD2Ev.exit17

39:                                               ; preds = %_ZN5Yosys5SExprD2Ev.exit
  %40 = load ptr, ptr %10, align 8, !tbaa !15
  %41 = getelementptr inbounds nuw i8, ptr %10, i64 16
  %42 = icmp eq ptr %40, %41
  br i1 %42, label %_ZNKSt7__cxx1112basic_stringIcSt11char_traitsIcESaIcEE11_M_is_localEv.exit.thread.i.i.i.i.i.i.i.i.i.i15, label %_ZNKSt7__cxx1112basic_stringIcSt11char_traitsIcESaIcEE11_M_is_localEv.exit.i.i.i.i.i.i.i.i.i.i14

_ZNKSt7__cxx1112basic_stringIcSt11char_traitsIcESaIcEE11_M_is_localEv.exit.thread.i.i.i.i.i.i.i.i.i.i15: ; preds = %39
  %43 = getelementptr inbounds nuw i8, ptr %10, i64 8
  %44 = load i64, ptr %43, align 8, !tbaa !20
  %45 = icmp ult i64 %44, 16
  call void @llvm.assume(i1 %45)
  br label %_ZN5Yosys5SExprD2Ev.exit17

_ZNKSt7__cxx1112basic_stringIcSt11char_traitsIcESaIcEE11_M_is_localEv.exit.i.i.i.i.i.i.i.i.i.i14: ; preds = %39
  %46 = load i64, ptr %41, align 8, !tbaa !21
  %47 = add i64 %46, 1
  call void @_ZdlPvm(ptr noundef %40, i64 noundef %47) #27
  br label %_ZN5Yosys5SExprD2Ev.exit17

_ZN5Yosys5SExprD2Ev.exit17:                       ; preds = %.noexc1.i.i16, %_ZNKSt7__cxx1112basic_stringIcSt11char_traitsIcESaIcEE11_M_is_localEv.exit.thread.i.i.i.i.i.i.i.i.i.i15, %_ZNKSt7__cxx1112basic_stringIcSt11char_traitsIcESaIcEE11_M_is_localEv.exit.i.i.i.i.i.i.i.i.i.i14
  call void @llvm.lifetime.end.p0(i64 40, ptr nonnull %10) #26
  ret void

48:                                               ; preds = %22, %21
  %49 = landingpad { ptr, i32 }
          cleanup
  br label %52

50:                                               ; preds = %24
  %51 = landingpad { ptr, i32 }
          cleanup
  call void @_ZN5Yosys5SExprD2Ev(ptr noundef nonnull align 8 dereferenceable(40) %11) #26
  br label %52

52:                                               ; preds = %50, %48
  %.pn = phi { ptr, i32 } [ %51, %50 ], [ %49, %48 ]
  call void @llvm.lifetime.end.p0(i64 40, ptr nonnull %11) #26
  call void @_ZN5Yosys5SExprD2Ev(ptr noundef nonnull align 8 dereferenceable(40) %10) #26
  call void @llvm.lifetime.end.p0(i64 40, ptr nonnull %10) #26
  resume { ptr, i32 } %.pn
}